; Function Attrs: mustprogress ssp uwtable
define void @_ZN6open3d13visualization25VisualizerWithKeyCallback19MouseButtonCallbackEP10GLFWwindowiii(ptr noundef nonnull align 8 dereferenceable(648) %0, ptr noundef %1, i32 noundef %2, i32 noundef %3, i32 noundef %4) unnamed_addr #2 align 2 personality ptr @__gxx_personality_v0 {
  %6 = alloca ptr, align 8
  %7 = alloca i32, align 4
  %8 = alloca i32, align 4
  %9 = alloca i32, align 4
  %10 = alloca %"class.std::shared_ptr", align 8
  %11 = getelementptr inbounds nuw i8, ptr %0, i64 632
  %12 = load ptr, ptr %11, align 8, !tbaa !13
  %.not.i.i.not = icmp eq ptr %12, null
  br i1 %.not.i.i.not, label %51, label %_ZNKSt8functionIFbPN6open3d13visualization10VisualizerEiiiEEclES3_iii.exit

_ZNKSt8functionIFbPN6open3d13visualization10VisualizerEiiiEEclES3_iii.exit: ; preds = %5
  %13 = getelementptr inbounds nuw i8, ptr %0, i64 616
  call void @llvm.lifetime.start.p0(i64 8, ptr nonnull %6)
  call void @llvm.lifetime.start.p0(i64 4, ptr nonnull %7)
  call void @llvm.lifetime.start.p0(i64 4, ptr nonnull %8)
  call void @llvm.lifetime.start.p0(i64 4, ptr nonnull %9)
  store ptr %0, ptr %6, align 8, !tbaa !30
  store i32 %2, ptr %7, align 4, !tbaa !44
  store i32 %3, ptr %8, align 4, !tbaa !44
  store i32 %4, ptr %9, align 4, !tbaa !44
  %14 = getelementptr inbounds nuw i8, ptr %0, i64 640
  %15 = load ptr, ptr %14, align 8, !tbaa !46
  %16 = call noundef zeroext i1 %15(ptr noundef nonnull align 8 dereferenceable(32) %13, ptr noundef nonnull align 8 dereferenceable(8) %6, ptr noundef nonnull align 4 dereferenceable(4) %7, ptr noundef nonnull align 4 dereferenceable(4) %8, ptr noundef nonnull align 4 dereferenceable(4) %9)
  call void @llvm.lifetime.end.p0(i64 8, ptr nonnull %6)
  call void @llvm.lifetime.end.p0(i64 4, ptr nonnull %7)
  call void @llvm.lifetime.end.p0(i64 4, ptr nonnull %8)
  call void @llvm.lifetime.end.p0(i64 4, ptr nonnull %9)
  br i1 %16, label %17, label %_ZNSt12__shared_ptrIKN6open3d8geometry8GeometryELN9__gnu_cxx12_Lock_policyE2EED2Ev.exit

17:                                               ; preds = %_ZNKSt8functionIFbPN6open3d13visualization10VisualizerEiiiEEclES3_iii.exit
  call void @llvm.memset.p0.i64(ptr noundef nonnull align 8 dereferenceable(16) %10, i8 0, i64 16, i1 false)
  %18 = load ptr, ptr %0, align 8, !tbaa !36
  %19 = getelementptr inbounds nuw i8, ptr %18, i64 40
  %20 = load ptr, ptr %19, align 8
  %21 = invoke noundef zeroext i1 %20(ptr noundef nonnull align 8 dereferenceable(456) %0, ptr noundef nonnull %10)
          to label %22 unwind label %46

22:                                               ; preds = %17
  %23 = getelementptr inbounds nuw i8, ptr %10, i64 8
  %24 = load ptr, ptr %23, align 8, !tbaa !38
  %.not.i.i10 = icmp eq ptr %24, null
  br i1 %.not.i.i10, label %_ZNSt12__shared_ptrIKN6open3d8geometry8GeometryELN9__gnu_cxx12_Lock_policyE2EED2Ev.exit, label %25

25:                                               ; preds = %22
  %26 = getelementptr inbounds nuw i8, ptr %24, i64 8
  %27 = load atomic i64, ptr %26 acquire, align 8
  %28 = icmp eq i64 %27, 4294967297
  %29 = trunc i64 %27 to i32
  br i1 %28, label %30, label %38

30:                                               ; preds = %25
  store i32 0, ptr %26, align 8, !tbaa !41
  %31 = getelementptr inbounds nuw i8, ptr %24, i64 12
  store i32 0, ptr %31, align 4, !tbaa !43
  %32 = load ptr, ptr %24, align 8, !tbaa !36
  %33 = getelementptr inbounds nuw i8, ptr %32, i64 16
  %34 = load ptr, ptr %33, align 8
  call void %34(ptr noundef nonnull align 8 dereferenceable(16) %24) #30
  %35 = load ptr, ptr %24, align 8, !tbaa !36
  %36 = getelementptr inbounds nuw i8, ptr %35, i64 24
  %37 = load ptr, ptr %36, align 8
  call void %37(ptr noundef nonnull align 8 dereferenceable(16) %24) #30
  br label %_ZNSt12__shared_ptrIKN6open3d8geometry8GeometryELN9__gnu_cxx12_Lock_policyE2EED2Ev.exit

38:                                               ; preds = %25
  %39 = load i8, ptr @__libc_single_threaded, align 1, !tbaa !25
  %.not.i.i.i = icmp eq i8 %39, 0
  br i1 %.not.i.i.i, label %42, label %40

40:                                               ; preds = %38
  %41 = add nsw i32 %29, -1
  store i32 %41, ptr %26, align 4, !tbaa !44
  br label %_ZN9__gnu_cxx27__exchange_and_add_dispatchEPii.exit.i.i.i

42:                                               ; preds = %38
  %43 = atomicrmw volatile add ptr %26, i32 -1 acq_rel, align 4
  br label %_ZN9__gnu_cxx27__exchange_and_add_dispatchEPii.exit.i.i.i

_ZN9__gnu_cxx27__exchange_and_add_dispatchEPii.exit.i.i.i: ; preds = %42, %40
  %.0.i.i.i.i = phi i32 [ %29, %40 ], [ %43, %42 ]
  %44 = icmp eq i32 %.0.i.i.i.i, 1
  br i1 %44, label %45, label %_ZNSt12__shared_ptrIKN6open3d8geometry8GeometryELN9__gnu_cxx12_Lock_policyE2EED2Ev.exit, !prof !45

45:                                               ; preds = %_ZN9__gnu_cxx27__exchange_and_add_dispatchEPii.exit.i.i.i
  call void @_ZNSt16_Sp_counted_baseILN9__gnu_cxx12_Lock_policyE2EE24_M_release_last_use_coldEv(ptr noundef nonnull align 8 dereferenceable(16) %24) #30
  br label %_ZNSt12__shared_ptrIKN6open3d8geometry8GeometryELN9__gnu_cxx12_Lock_policyE2EED2Ev.exit

46:                                               ; preds = %17
  %47 = landingpad { ptr, i32 }
          cleanup
  call void @_ZNSt12__shared_ptrIKN6open3d8geometry8GeometryELN9__gnu_cxx12_Lock_policyE2EED2Ev(ptr noundef nonnull align 8 dereferenceable(16) %10) #30
  resume { ptr, i32 } %47

_ZNSt12__shared_ptrIKN6open3d8geometry8GeometryELN9__gnu_cxx12_Lock_policyE2EED2Ev.exit: ; preds = %45, %_ZN9__gnu_cxx27__exchange_and_add_dispatchEPii.exit.i.i.i, %30, %22, %_ZNKSt8functionIFbPN6open3d13visualization10VisualizerEiiiEEclES3_iii.exit
  %48 = load ptr, ptr %0, align 8, !tbaa !36
  %49 = getelementptr inbounds nuw i8, ptr %48, i64 56
  %50 = load ptr, ptr %49, align 8
  call void %50(ptr noundef nonnull align 8 dereferenceable(456) %0)
  br label %52

51:                                               ; preds = %5
  tail call void @_ZN6open3d13visualization10Visualizer19MouseButtonCallbackEP10GLFWwindowiii(ptr noundef nonnull align 8 dereferenceable(456) %0, ptr noundef %1, i32 noundef %2, i32 noundef %3, i32 noundef %4)
  br label %52

52:                                               ; preds = %51, %_ZNSt12__shared_ptrIKN6open3d8geometry8GeometryELN9__gnu_cxx12_Lock_policyE2EED2Ev.exit
  ret void
}